; Function Attrs: mustprogress nofree nounwind uwtable
define noundef range(i32 0, 80) i32 @_ZN7lodepng9save_fileERKSt6vectorIhSaIhEERKNSt7__cxx1112basic_stringIcSt11char_traitsIcESaIcEEE(ptr noundef nonnull readonly align 8 captures(none) dereferenceable(24) %0, ptr noundef nonnull readonly align 8 captures(none) dereferenceable(32) %1) local_unnamed_addr #0 personality ptr @__gxx_personality_v0 {
  %3 = load ptr, ptr %0, align 8, !tbaa !7
  %4 = getelementptr inbounds nuw i8, ptr %0, i64 8
  %5 = load ptr, ptr %4, align 8, !tbaa !7
  %6 = load ptr, ptr %1, align 8, !tbaa !767
  %7 = tail call noalias ptr @fopen(ptr noundef readonly %6, ptr noundef nonnull @.str.2)
  %.not.i = icmp eq ptr %7, null
  br i1 %.not.i, label %_Z17lodepng_save_filePKhmPKc.exit, label %8

8:                                                ; preds = %2
  %9 = ptrtoint ptr %5 to i64
  %10 = ptrtoint ptr %3 to i64
  %11 = sub i64 %9, %10
  %12 = icmp eq ptr %3, %5
  %spec.select = select i1 %12, ptr null, ptr %3
  %13 = tail call i64 @fwrite(ptr noundef %spec.select, i64 noundef 1, i64 noundef %11, ptr noundef nonnull %7)
  %14 = tail call i32 @fclose(ptr noundef nonnull %7)
  br label %_Z17lodepng_save_filePKhmPKc.exit

_Z17lodepng_save_filePKhmPKc.exit:                ; preds = %2, %8
  %.0.i = phi i32 [ 0, %8 ], [ 79, %2 ]
  ret i32 %.0.i
}